target datalayout = "e-m:e-p270:32:32-p271:32:32-p272:64:64-i64:64-i128:128-f80:128-n8:16:32:64-S128"
target triple = "x86_64-pc-linux-gnu"

; Function Attrs: mustprogress nounwind uwtable
define dso_local void @_ZN4absl14flags_internal9MaybeExitENS0_8HelpModeE(i32 noundef %0) #2 {
  %2 = alloca i32, align 4
  store i32 %0, ptr %2, align 4, !tbaa !35
  %3 = load i32, ptr %2, align 4, !tbaa !35
  switch i32 %3, label %6 [
    i32 0, label %4
    i32 7, label %5
    i32 6, label %5
  ]

4:                                                ; preds = %1
  ret void

5:                                                ; preds = %1, %1
  call void @exit(i32 noundef 0) #19
  unreachable

6:                                                ; preds = %1
  call void @exit(i32 noundef 1) #19
  unreachable
}