; Function Attrs: mustprogress nofree nounwind uwtable
define dso_local void @_ZN4absl14flags_internal9MaybeExitENS0_8HelpModeE(i32 noundef %0) local_unnamed_addr #6 {
  switch i32 %0, label %4 [
    i32 0, label %2
    i32 7, label %3
    i32 6, label %3
  ]

2:                                                ; preds = %1
  ret void

3:                                                ; preds = %1, %1
  tail call void @exit(i32 noundef 0) #26
  unreachable

4:                                                ; preds = %1
  tail call void @exit(i32 noundef 1) #30
  unreachable
}